; Function Attrs: mustprogress uwtable
define dso_local void @_ZN17btHingeConstraint9setFramesERK11btTransformS2_(ptr noundef nonnull align 8 dereferenceable(792) %this, ptr nocapture noundef nonnull readonly align 4 dereferenceable(64) %frameA, ptr nocapture noundef nonnull readonly align 4 dereferenceable(64) %frameB) local_unnamed_addr #4 align 2 {
entry:
  %m_rbAFrame = getelementptr inbounds i8, ptr %this, i64 576
  tail call void @llvm.memcpy.p0.p0.i64(ptr noundef nonnull align 8 dereferenceable(16) %m_rbAFrame, ptr noundef nonnull align 4 dereferenceable(16) %frameA, i64 16, i1 false)
  %arrayidx5.i.i = getelementptr inbounds i8, ptr %frameA, i64 16
  %arrayidx7.i.i = getelementptr inbounds i8, ptr %this, i64 592
  tail call void @llvm.memcpy.p0.p0.i64(ptr noundef nonnull align 8 dereferenceable(16) %arrayidx7.i.i, ptr noundef nonnull align 4 dereferenceable(16) %arrayidx5.i.i, i64 16, i1 false)
  %arrayidx9.i.i = getelementptr inbounds i8, ptr %frameA, i64 32
  %arrayidx11.i.i = getelementptr inbounds i8, ptr %this, i64 608
  tail call void @llvm.memcpy.p0.p0.i64(ptr noundef nonnull align 8 dereferenceable(16) %arrayidx11.i.i, ptr noundef nonnull align 4 dereferenceable(16) %arrayidx9.i.i, i64 16, i1 false)
  %m_origin.i = getelementptr inbounds i8, ptr %frameA, i64 48
  %m_origin3.i = getelementptr inbounds i8, ptr %this, i64 624
  tail call void @llvm.memcpy.p0.p0.i64(ptr noundef nonnull align 8 dereferenceable(16) %m_origin3.i, ptr noundef nonnull align 4 dereferenceable(16) %m_origin.i, i64 16, i1 false)
  %m_rbBFrame = getelementptr inbounds i8, ptr %this, i64 640
  tail call void @llvm.memcpy.p0.p0.i64(ptr noundef nonnull align 8 dereferenceable(16) %m_rbBFrame, ptr noundef nonnull align 4 dereferenceable(16) %frameB, i64 16, i1 false)
  %arrayidx5.i.i1 = getelementptr inbounds i8, ptr %frameB, i64 16
  %arrayidx7.i.i2 = getelementptr inbounds i8, ptr %this, i64 656
  tail call void @llvm.memcpy.p0.p0.i64(ptr noundef nonnull align 8 dereferenceable(16) %arrayidx7.i.i2, ptr noundef nonnull align 4 dereferenceable(16) %arrayidx5.i.i1, i64 16, i1 false)
  %arrayidx9.i.i3 = getelementptr inbounds i8, ptr %frameB, i64 32
  %arrayidx11.i.i4 = getelementptr inbounds i8, ptr %this, i64 672
  tail call void @llvm.memcpy.p0.p0.i64(ptr noundef nonnull align 8 dereferenceable(16) %arrayidx11.i.i4, ptr noundef nonnull align 4 dereferenceable(16) %arrayidx9.i.i3, i64 16, i1 false)
  %m_origin.i5 = getelementptr inbounds i8, ptr %frameB, i64 48
  %m_origin3.i6 = getelementptr inbounds i8, ptr %this, i64 688
  tail call void @llvm.memcpy.p0.p0.i64(ptr noundef nonnull align 8 dereferenceable(16) %m_origin3.i6, ptr noundef nonnull align 4 dereferenceable(16) %m_origin.i5, i64 16, i1 false)
  %vtable = load ptr, ptr %this, align 8
  %vfn = getelementptr inbounds i8, ptr %vtable, i64 16
  %0 = load ptr, ptr %vfn, align 8
  tail call void %0(ptr noundef nonnull align 8 dereferenceable(792) %this)
  ret void
}